(dp1
S'douban'
p2
(dp3
Vuid
p4
Vwilbeibi
p5
sVis_suicide
p6
I00
sValt
p7
Vhttp://www.douban.com/people/wilbeibi/
p8
sVloc_name
p9
VSan Francisco Bay Area, United States
p10
sVis_banned
p11
I00
sVid
p12
V4573263
p13
sVrefresh_token
p14
Vda9d9da2d50f3c638fd8d8e87f2db529
p15
sVdesc
p16
VInstagram: instagram.com/wilbeibi/\u000a\u000a\u5728\u79bb\u7a97\u4e00\u6b65\u4e4b\u9065\u7684\u5730\u65b9\uff0c\u000a\u000a\u4ed6\u63b8\u53bb\u6597\u84ec\u4e0a\u7684\u6bdb\u53d1\uff1b\u000a\u000a\u4ed6\u6307\u7740\u51b0\u5cf0\u8d77\u8a93\uff1a\u000a\u000a"\u7761\u5427\u4eb2\u7231\u7684\uff0c\u6211\u5fc5\u5982\u96ea\u5d29\u518d\u6765\u3002" \u000a\u000a---------------------------------------\u000a\u000a\u800c\u5b83\uff0c\u4e0d\u5b89\u5730\uff0c\u5728\u7948\u6c42\u7740\u98ce\u66b4\uff0c\u000a\u4eff\u4f5b\u662f\u5728\u98ce\u66b4\u4e2d\u624d\u6709\u5b89\u8be6\u3002
p17
sVloc_id
p18
V128400
p19
sVname
p20
V\u5927\u5934
p21
sVcreated
p22
V2009-07-08 22:56:02
p23
sVaccess_token
p24
Vdc0c6cffcfa7a5b6942546ff6ef6f122
p25
sVexpires_in
p26
I604800
sVdouban_user_id
p27
V4573263
p28
sVavatar
p29
Vhttp://img3.douban.com/icon/u4573263-47.jpg
p30
sVsignature
p31
V\u4ed6\u867d\u7136\u662f\u4e2a\u515a\u5458\uff0c\u4f46\u4eba\u8fd8\u4e0d\u7b97\u574f
p32
sVdouban_user_name
p33
V\u5927\u5934
p34
sVtype
p35
Vuser
p36
sVlarge_avatar
p37
Vhttp://img3.douban.com/icon/up4573263-47.jpg
p38
ssS'instagram'
p39
(dp40
Vaccess_token
p41
V546320656.0a0fd5f.88cf1c03db6545dfb2bdff073c4634e7
p42
sVuser
p43
(dp44
Vusername
p45
Vwilbeibi
p46
sVbio
p47
V\u5b66\u6587\u672a\u9042\uff0c\u6ca6\u4e3a\u7a0b\u5e8f\u5458\u3002
p48
sVwebsite
p49
Vhttp://wilbeibi.com
p50
sVprofile_picture
p51
Vhttps://igcdn-photos-h-a.akamaihd.net/hphotos-ak-xaf1/t51.2885-19/11377560_103249270014943_903055879_a.jpg
p52
sVfull_name
p53
VHongyi Shen
p54
sVid
p55
V546320656
p56
sss.